target datalayout = "e-m:e-p270:32:32-p271:32:32-p272:64:64-i64:64-i128:128-f80:128-n8:16:32:64-S128"
target triple = "x86_64-pc-linux-gnu"

%struct.SDL_AtomicInt = type { i32 }
%struct.SDL_HIDAPI_Device = type { ptr, ptr, ptr, ptr, i16, i16, i16, ptr, %struct.SDL_GUID, i32, i32, i32, i32, i16, i16, i8, i32, i32, i32, ptr, ptr, ptr, ptr, %struct.SDL_AtomicInt, i32, ptr, i8, i8, i8, ptr, i32, ptr, ptr }
%struct.SDL_GUID = type { [16 x i8] }

@SDL_HIDAPI_numjoysticks = internal global i32 0, align 4

; Function Attrs: nounwind uwtable
define internal zeroext i1 @HIDAPI_AddJoystickInstanceToDevice(ptr noundef %0, i32 noundef %1) #0 {
  %3 = alloca i1, align 1
  %4 = alloca ptr, align 8
  %5 = alloca i32, align 4
  %6 = alloca ptr, align 8
  %7 = alloca i32, align 4
  store ptr %0, ptr %4, align 8
  store i32 %1, ptr %5, align 4
  call void @llvm.lifetime.start.p0(i64 8, ptr %6) #7
  %8 = load ptr, ptr %4, align 8
  %9 = getelementptr inbounds nuw %struct.SDL_HIDAPI_Device, ptr %8, i32 0, i32 25
  %10 = load ptr, ptr %9, align 8
  %11 = load ptr, ptr %4, align 8
  %12 = getelementptr inbounds nuw %struct.SDL_HIDAPI_Device, ptr %11, i32 0, i32 24
  %13 = load i32, ptr %12, align 4
  %14 = add nsw i32 %13, 1
  %15 = sext i32 %14 to i64
  %16 = mul i64 %15, 4
  %17 = call ptr @SDL_realloc_REAL(ptr noundef %10, i64 noundef %16) #8
  store ptr %17, ptr %6, align 8
  %18 = load ptr, ptr %6, align 8
  %19 = icmp ne ptr %18, null
  br i1 %19, label %21, label %20

20:                                               ; preds = %2
  store i1 false, ptr %3, align 1
  store i32 1, ptr %7, align 4
  br label %35

21:                                               ; preds = %2
  %22 = load ptr, ptr %6, align 8
  %23 = load ptr, ptr %4, align 8
  %24 = getelementptr inbounds nuw %struct.SDL_HIDAPI_Device, ptr %23, i32 0, i32 25
  store ptr %22, ptr %24, align 8
  %25 = load i32, ptr %5, align 4
  %26 = load ptr, ptr %4, align 8
  %27 = getelementptr inbounds nuw %struct.SDL_HIDAPI_Device, ptr %26, i32 0, i32 25
  %28 = load ptr, ptr %27, align 8
  %29 = load ptr, ptr %4, align 8
  %30 = getelementptr inbounds nuw %struct.SDL_HIDAPI_Device, ptr %29, i32 0, i32 24
  %31 = load i32, ptr %30, align 4
  %32 = add nsw i32 %31, 1
  store i32 %32, ptr %30, align 4
  %33 = sext i32 %31 to i64
  %34 = getelementptr inbounds i32, ptr %28, i64 %33
  store i32 %25, ptr %34, align 4
  store i1 true, ptr %3, align 1
  store i32 1, ptr %7, align 4
  br label %35

35:                                               ; preds = %21, %20
  call void @llvm.lifetime.end.p0(i64 8, ptr %6) #7
  %36 = load i1, ptr %3, align 1
  ret i1 %36
}

; Function Attrs: nounwind uwtable
define hidden zeroext i1 @HIDAPI_JoystickConnected(ptr noundef %0, ptr noundef %1) #0 {
  %3 = alloca ptr, align 8
  %4 = alloca ptr, align 8
  %5 = alloca i32, align 4
  %6 = alloca i32, align 4
  %7 = alloca i32, align 4
  %8 = alloca ptr, align 8
  %9 = alloca ptr, align 8
  store ptr %0, ptr %3, align 8
  store ptr %1, ptr %4, align 8
  call void @llvm.lifetime.start.p0(i64 4, ptr %5) #7
  call void @llvm.lifetime.start.p0(i64 4, ptr %6) #7
  call void @llvm.lifetime.start.p0(i64 4, ptr %7) #7
  call void @SDL_AssertJoysticksLocked()
  store i32 0, ptr %5, align 4
  br label %10

10:                                               ; preds = %41, %2
  %11 = load i32, ptr %5, align 4
  %12 = load ptr, ptr %3, align 8
  %13 = getelementptr inbounds nuw %struct.SDL_HIDAPI_Device, ptr %12, i32 0, i32 30
  %14 = load i32, ptr %13, align 8
  %15 = icmp slt i32 %11, %14
  br i1 %15, label %16, label %44

16:                                               ; preds = %10
  call void @llvm.lifetime.start.p0(i64 8, ptr %8) #7
  %17 = load ptr, ptr %3, align 8
  %18 = getelementptr inbounds nuw %struct.SDL_HIDAPI_Device, ptr %17, i32 0, i32 31
  %19 = load ptr, ptr %18, align 8
  %20 = load i32, ptr %5, align 4
  %21 = sext i32 %20 to i64
  %22 = getelementptr inbounds ptr, ptr %19, i64 %21
  %23 = load ptr, ptr %22, align 8
  store ptr %23, ptr %8, align 8
  %24 = load ptr, ptr %8, align 8
  %25 = getelementptr inbounds nuw %struct.SDL_HIDAPI_Device, ptr %24, i32 0, i32 24
  %26 = load i32, ptr %25, align 4
  store i32 %26, ptr %6, align 4
  br label %27

27:                                               ; preds = %31, %16
  %28 = load i32, ptr %6, align 4
  %29 = add nsw i32 %28, -1
  store i32 %29, ptr %6, align 4
  %30 = icmp ne i32 %28, 0
  br i1 %30, label %31, label %40

31:                                               ; preds = %27
  %32 = load ptr, ptr %8, align 8
  %33 = load ptr, ptr %8, align 8
  %34 = getelementptr inbounds nuw %struct.SDL_HIDAPI_Device, ptr %33, i32 0, i32 25
  %35 = load ptr, ptr %34, align 8
  %36 = load i32, ptr %6, align 4
  %37 = sext i32 %36 to i64
  %38 = getelementptr inbounds i32, ptr %35, i64 %37
  %39 = load i32, ptr %38, align 4
  call void @HIDAPI_JoystickDisconnected(ptr noundef %32, i32 noundef %39)
  br label %27, !llvm.loop !13

40:                                               ; preds = %27
  call void @llvm.lifetime.end.p0(i64 8, ptr %8) #7
  br label %41

41:                                               ; preds = %40
  %42 = load i32, ptr %5, align 4
  %43 = add nsw i32 %42, 1
  store i32 %43, ptr %5, align 4
  br label %10, !llvm.loop !14

44:                                               ; preds = %10
  %45 = call i32 @SDL_GetNextObjectID()
  store i32 %45, ptr %7, align 4
  %46 = load ptr, ptr %3, align 8
  %47 = load i32, ptr %7, align 4
  %48 = call zeroext i1 @HIDAPI_AddJoystickInstanceToDevice(ptr noundef %46, i32 noundef %47)
  store i32 0, ptr %5, align 4
  br label %49

49:                                               ; preds = %66, %44
  %50 = load i32, ptr %5, align 4
  %51 = load ptr, ptr %3, align 8
  %52 = getelementptr inbounds nuw %struct.SDL_HIDAPI_Device, ptr %51, i32 0, i32 30
  %53 = load i32, ptr %52, align 8
  %54 = icmp slt i32 %50, %53
  br i1 %54, label %55, label %69

55:                                               ; preds = %49
  call void @llvm.lifetime.start.p0(i64 8, ptr %9) #7
  %56 = load ptr, ptr %3, align 8
  %57 = getelementptr inbounds nuw %struct.SDL_HIDAPI_Device, ptr %56, i32 0, i32 31
  %58 = load ptr, ptr %57, align 8
  %59 = load i32, ptr %5, align 4
  %60 = sext i32 %59 to i64
  %61 = getelementptr inbounds ptr, ptr %58, i64 %60
  %62 = load ptr, ptr %61, align 8
  store ptr %62, ptr %9, align 8
  %63 = load ptr, ptr %9, align 8
  %64 = load i32, ptr %7, align 4
  %65 = call zeroext i1 @HIDAPI_AddJoystickInstanceToDevice(ptr noundef %63, i32 noundef %64)
  call void @llvm.lifetime.end.p0(i64 8, ptr %9) #7
  br label %66

66:                                               ; preds = %55
  %67 = load i32, ptr %5, align 4
  %68 = add nsw i32 %67, 1
  store i32 %68, ptr %5, align 4
  br label %49, !llvm.loop !15

69:                                               ; preds = %49
  %70 = load i32, ptr @SDL_HIDAPI_numjoysticks, align 4
  %71 = add nsw i32 %70, 1
  store i32 %71, ptr @SDL_HIDAPI_numjoysticks, align 4
  %72 = load ptr, ptr %4, align 8
  %73 = icmp ne ptr %72, null
  br i1 %73, label %74, label %77

74:                                               ; preds = %69
  %75 = load i32, ptr %7, align 4
  %76 = load ptr, ptr %4, align 8
  store i32 %75, ptr %76, align 4
  br label %77

77:                                               ; preds = %74, %69
  %78 = load i32, ptr %7, align 4
  call void @SDL_PrivateJoystickAdded(i32 noundef %78)
  call void @llvm.lifetime.end.p0(i64 4, ptr %7) #7
  call void @llvm.lifetime.end.p0(i64 4, ptr %6) #7
  call void @llvm.lifetime.end.p0(i64 4, ptr %5) #7
  ret i1 true
}