; Function Attrs: nounwind uwtable
define hidden noundef zeroext i1 @HIDAPI_JoystickConnected(ptr noundef captures(none) %0, ptr noundef writeonly captures(address_is_null) %1) local_unnamed_addr #0 {
  tail call void @SDL_AssertJoysticksLocked() #9
  %3 = getelementptr inbounds nuw i8, ptr %0, i64 168
  %4 = load i32, ptr %3, align 8
  %5 = icmp sgt i32 %4, 0
  br i1 %5, label %.lr.ph31, label %._crit_edge32

.lr.ph31:                                         ; preds = %2
  %6 = getelementptr inbounds nuw i8, ptr %0, i64 176
  br label %7

7:                                                ; preds = %.lr.ph31, %._crit_edge
  %8 = phi i32 [ %4, %.lr.ph31 ], [ %20, %._crit_edge ]
  %indvars.iv37 = phi i64 [ 0, %.lr.ph31 ], [ %indvars.iv.next38, %._crit_edge ]
  %9 = load ptr, ptr %6, align 8
  %10 = getelementptr inbounds nuw ptr, ptr %9, i64 %indvars.iv37
  %11 = load ptr, ptr %10, align 8
  %12 = getelementptr inbounds nuw i8, ptr %11, i64 140
  %13 = load i32, ptr %12, align 4
  %.not2427 = icmp eq i32 %13, 0
  br i1 %.not2427, label %._crit_edge, label %.lr.ph

.lr.ph:                                           ; preds = %7
  %14 = getelementptr inbounds nuw i8, ptr %11, i64 144
  %15 = sext i32 %13 to i64
  br label %16

16:                                               ; preds = %.lr.ph, %16
  %indvars.iv = phi i64 [ %15, %.lr.ph ], [ %indvars.iv.next, %16 ]
  %indvars.iv.next = add nsw i64 %indvars.iv, -1
  %17 = load ptr, ptr %14, align 8
  %18 = getelementptr inbounds i32, ptr %17, i64 %indvars.iv.next
  %19 = load i32, ptr %18, align 4
  tail call void @HIDAPI_JoystickDisconnected(ptr noundef nonnull %11, i32 noundef %19)
  %.not24 = icmp eq i64 %indvars.iv.next, 0
  br i1 %.not24, label %._crit_edge.loopexit, label %16, !llvm.loop !14

._crit_edge.loopexit:                             ; preds = %16
  %.pre = load i32, ptr %3, align 8
  br label %._crit_edge

._crit_edge:                                      ; preds = %._crit_edge.loopexit, %7
  %20 = phi i32 [ %.pre, %._crit_edge.loopexit ], [ %8, %7 ]
  %indvars.iv.next38 = add nuw nsw i64 %indvars.iv37, 1
  %21 = sext i32 %20 to i64
  %22 = icmp slt i64 %indvars.iv.next38, %21
  br i1 %22, label %7, label %._crit_edge32, !llvm.loop !15

._crit_edge32:                                    ; preds = %._crit_edge, %2
  %23 = tail call i32 @SDL_GetNextObjectID() #9
  %24 = getelementptr inbounds nuw i8, ptr %0, i64 144
  %25 = load ptr, ptr %24, align 8
  %26 = getelementptr inbounds nuw i8, ptr %0, i64 140
  %27 = load i32, ptr %26, align 4
  %28 = add nsw i32 %27, 1
  %29 = sext i32 %28 to i64
  %30 = shl nsw i64 %29, 2
  %31 = tail call ptr @SDL_realloc_REAL(ptr noundef %25, i64 noundef %30) #10
  %.not.i.not = icmp eq ptr %31, null
  br i1 %.not.i.not, label %HIDAPI_AddJoystickInstanceToDevice.exit, label %32

32:                                               ; preds = %._crit_edge32
  store ptr %31, ptr %24, align 8
  %33 = load i32, ptr %26, align 4
  %34 = add nsw i32 %33, 1
  store i32 %34, ptr %26, align 4
  %35 = sext i32 %33 to i64
  %36 = getelementptr inbounds i32, ptr %31, i64 %35
  store i32 %23, ptr %36, align 4
  br label %HIDAPI_AddJoystickInstanceToDevice.exit

HIDAPI_AddJoystickInstanceToDevice.exit:          ; preds = %._crit_edge32, %32
  %37 = load i32, ptr %3, align 8
  %38 = icmp sgt i32 %37, 0
  br i1 %38, label %.lr.ph34, label %._crit_edge35

.lr.ph34:                                         ; preds = %HIDAPI_AddJoystickInstanceToDevice.exit
  %39 = getelementptr inbounds nuw i8, ptr %0, i64 176
  br label %40

40:                                               ; preds = %.lr.ph34, %HIDAPI_AddJoystickInstanceToDevice.exit26
  %indvars.iv40 = phi i64 [ 0, %.lr.ph34 ], [ %indvars.iv.next41, %HIDAPI_AddJoystickInstanceToDevice.exit26 ]
  %41 = load ptr, ptr %39, align 8
  %42 = getelementptr inbounds nuw ptr, ptr %41, i64 %indvars.iv40
  %43 = load ptr, ptr %42, align 8
  %44 = getelementptr inbounds nuw i8, ptr %43, i64 144
  %45 = load ptr, ptr %44, align 8
  %46 = getelementptr inbounds nuw i8, ptr %43, i64 140
  %47 = load i32, ptr %46, align 4
  %48 = add nsw i32 %47, 1
  %49 = sext i32 %48 to i64
  %50 = shl nsw i64 %49, 2
  %51 = tail call ptr @SDL_realloc_REAL(ptr noundef %45, i64 noundef %50) #10
  %.not.i25.not = icmp eq ptr %51, null
  br i1 %.not.i25.not, label %HIDAPI_AddJoystickInstanceToDevice.exit26, label %52

52:                                               ; preds = %40
  store ptr %51, ptr %44, align 8
  %53 = load i32, ptr %46, align 4
  %54 = add nsw i32 %53, 1
  store i32 %54, ptr %46, align 4
  %55 = sext i32 %53 to i64
  %56 = getelementptr inbounds i32, ptr %51, i64 %55
  store i32 %23, ptr %56, align 4
  br label %HIDAPI_AddJoystickInstanceToDevice.exit26

HIDAPI_AddJoystickInstanceToDevice.exit26:        ; preds = %40, %52
  %indvars.iv.next41 = add nuw nsw i64 %indvars.iv40, 1
  %57 = load i32, ptr %3, align 8
  %58 = sext i32 %57 to i64
  %59 = icmp slt i64 %indvars.iv.next41, %58
  br i1 %59, label %40, label %._crit_edge35, !llvm.loop !16

._crit_edge35:                                    ; preds = %HIDAPI_AddJoystickInstanceToDevice.exit26, %HIDAPI_AddJoystickInstanceToDevice.exit
  %60 = load i32, ptr @SDL_HIDAPI_numjoysticks, align 4
  %61 = add nsw i32 %60, 1
  store i32 %61, ptr @SDL_HIDAPI_numjoysticks, align 4
  %.not = icmp eq ptr %1, null
  br i1 %.not, label %63, label %62

62:                                               ; preds = %._crit_edge35
  store i32 %23, ptr %1, align 4
  br label %63

63:                                               ; preds = %62, %._crit_edge35
  tail call void @SDL_PrivateJoystickAdded(i32 noundef %23) #9
  ret i1 true
}